Certificate:
    Data:
        Version: 3 (0x2)
        Serial Number: 817 (0x331)
        Signature Algorithm: sha512WithRSAEncryption
        Issuer: C=IT, O=IGI, CN=Test CA
        Validity
            Not Before: May 16 21:52:04 2020 GMT
            Not After : May 14 21:52:04 2030 GMT
        Subject: C=IT, O=IGI, CN=iam-ng
        Subject Public Key Info:
            Public Key Algorithm: rsaEncryption
                RSA Public-Key: (2048 bit)
                Modulus:
                    00:be:47:25:53:84:63:3e:af:6a:14:d5:39:93:f9:
                    5b:40:ce:be:70:7e:dc:3d:ff:79:19:db:9e:30:e2:
                    e9:60:e0:e4:fc:b6:11:dc:58:32:54:00:7f:2c:61:
                    39:fc:8f:42:9f:b9:61:b7:19:d7:55:68:9c:4e:42:
                    bc:59:02:0d:f3:c5:4f:11:6b:ab:ae:42:c7:f8:1e:
                    30:4d:37:6f:a0:83:6c:5a:c7:17:3c:1f:ab:66:57:
                    93:36:70:64:1b:fd:a6:4b:35:9f:33:2e:ae:95:f4:
                    d6:4c:10:5e:88:c7:c7:5d:6c:f0:db:66:1b:d1:22:
                    78:69:4b:11:b7:a4:c9:8b:c6:43:32:9f:a5:bd:40:
                    fa:74:dc:35:c8:7e:8b:a7:50:43:c4:e4:8c:f5:8c:
                    7e:6c:15:2f:27:bc:de:e4:d4:f9:5e:c8:fc:57:ca:
                    62:fc:78:f0:bc:0a:05:27:ec:eb:3e:37:35:bb:de:
                    83:96:93:ca:87:b8:60:56:18:ab:d5:d7:42:14:fe:
                    7d:57:a6:d3:16:af:f0:aa:32:6c:05:20:8e:da:62:
                    9b:a2:b3:ac:54:f8:36:91:65:0c:ce:da:f4:03:76:
                    53:8e:2c:de:fc:10:98:83:93:3d:a5:d7:3c:b6:a6:
                    4d:47:58:6e:d6:90:1d:05:2c:e1:36:4e:66:24:20:
                    ad:d1
                Exponent: 65537 (0x10001)
        X509v3 extensions:
            X509v3 Basic Constraints: critical
                CA:FALSE
            X509v3 Subject Key Identifier: 
                9A:92:15:B6:BE:6F:3C:EF:A4:68:B0:09:F9:31:E5:6E:99:E1:A4:30
            X509v3 Key Usage: critical
                Digital Signature, Non Repudiation, Key Encipherment
            X509v3 Extended Key Usage: 
                TLS Web Server Authentication, TLS Web Client Authentication, Microsoft Server Gated Crypto, Netscape Server Gated Crypto, E-mail Protection
            X509v3 Authority Key Identifier: 
                keyid:91:77:36:7B:2E:B4:69:F3:27:EA:B7:F6:08:8B:4A:23:A2:11:49:C6

            X509v3 Subject Alternative Name: 
                DNS:localhost, DNS:api.test.example, DNS:kc.test.example, DNS:dashboard.test.example
    Signature Algorithm: sha512WithRSAEncryption
         a3:c8:24:0a:4a:e2:80:4b:e2:f9:13:bc:cd:13:93:55:fa:1c:
         87:33:19:2e:c2:97:6f:0d:f1:6f:cd:87:1e:c4:82:7f:15:b4:
         fc:01:4e:99:34:d5:b3:aa:45:1b:9b:04:f9:3a:e0:fb:5f:6a:
         72:3f:7a:a7:4c:cd:a8:d6:7f:4e:a4:59:fd:2d:08:a2:60:45:
         69:cb:96:50:78:5f:3f:9f:bf:13:95:76:3f:10:da:76:54:ce:
         bf:b1:00:5e:ce:bb:a5:51:8f:4c:70:6e:5a:10:1c:df:2f:0b:
         91:0f:cf:88:51:88:a4:07:8a:d2:f2:b7:8e:39:59:07:5a:6c:
         4b:c2:08:ee:e6:3c:d6:f1:f4:1e:9d:ce:83:54:ba:48:4f:00:
         47:9f:a4:b2:10:e3:81:34:19:cd:e7:6e:57:f2:58:13:15:67:
         1b:7c:7f:00:41:6d:6b:73:cd:ce:90:d7:f7:55:a9:8a:3f:f0:
         a6:de:43:eb:6d:9f:a3:ad:13:37:69:a1:7b:28:73:85:6c:95:
         27:d8:85:f5:0b:df:32:92:9b:e6:3b:ca:85:50:bf:dd:93:34:
         74:63:8f:fe:d8:89:b6:05:ad:f3:e6:cd:11:24:e1:bc:6a:84:
         49:60:79:86:40:1f:3c:78:84:3f:b1:76:c5:c5:85:1e:f4:73:
         e1:2c:bf:1f
-----BEGIN CERTIFICATE-----
MIIDyDCCArCgAwIBAgICAzEwDQYJKoZIhvcNAQENBQAwLTELMAkGA1UEBhMCSVQx
DDAKBgNVBAoMA0lHSTEQMA4GA1UEAwwHVGVzdCBDQTAeFw0yMDA1MTYyMTUyMDRa
Fw0zMDA1MTQyMTUyMDRaMCwxCzAJBgNVBAYTAklUMQwwCgYDVQQKDANJR0kxDzAN
BgNVBAMMBmlhbS1uZzCCASIwDQYJKoZIhvcNAQEBBQADggEPADCCAQoCggEBAL5H
JVOEYz6vahTVOZP5W0DOvnB+3D3/eRnbnjDi6WDg5Py2EdxYMlQAfyxhOfyPQp+5
YbcZ11VonE5CvFkCDfPFTxFrq65Cx/geME03b6CDbFrHFzwfq2ZXkzZwZBv9pks1
nzMurpX01kwQXojHx11s8NtmG9EieGlLEbekyYvGQzKfpb1A+nTcNch+i6dQQ8Tk
jPWMfmwVLye83uTU+V7I/FfKYvx48LwKBSfs6z43Nbveg5aTyoe4YFYYq9XXQhT+
fVem0xav8KoybAUgjtpim6KzrFT4NpFlDM7a9AN2U44s3vwQmIOTPaXXPLamTUdY
btaQHQUs4TZOZiQgrdECAwEAAaOB8jCB7zAMBgNVHRMBAf8EAjAAMB0GA1UdDgQW
BBSakhW2vm8876RosAn5MeVumeGkMDAOBgNVHQ8BAf8EBAMCBeAwPgYDVR0lBDcw
NQYIKwYBBQUHAwEGCCsGAQUFBwMCBgorBgEEAYI3CgMDBglghkgBhvhCBAEGCCsG
AQUFBwMEMB8GA1UdIwQYMBaAFJF3NnsutGnzJ+q39giLSiOiEUnGME8GA1UdEQRI
MEaCCWxvY2FsaG9zdIIQYXBpLnRlc3QuZXhhbXBsZYIPa2MudGVzdC5leGFtcGxl
ghZkYXNoYm9hcmQudGVzdC5leGFtcGxlMA0GCSqGSIb3DQEBDQUAA4IBAQCjyCQK
SuKAS+L5E7zNE5NV+hyHMxkuwpdvDfFvzYcexIJ/FbT8AU6ZNNWzqkUbmwT5OuD7
X2pyP3qnTM2o1n9OpFn9LQiiYEVpy5ZQeF8/n78TlXY/ENp2VM6/sQBezrulUY9M
cG5aEBzfLwuRD8+IUYikB4rS8reOOVkHWmxLwgju5jzW8fQenc6DVLpITwBHn6Sy
EOOBNBnN525X8lgTFWcbfH8AQW1rc83OkNf3VamKP/Cm3kPrbZ+jrRM3aaF7KHOF
bJUn2IX1C98ykpvmO8qFUL/dkzR0Y4/+2Im2Ba3z5s0RJOG8aoRJYHmGQB88eIQ/
sXbFxYUe9HPhLL8f
-----END CERTIFICATE-----
