Certificate:
    Data:
        Version: 3 (0x2)
        Serial Number: 818 (0x332)
        Signature Algorithm: sha512WithRSAEncryption
        Issuer: C=IT, O=IGI, CN=Test CA
        Validity
            Not Before: May 17 06:43:21 2020 GMT
            Not After : May 15 06:43:21 2030 GMT
        Subject: C=IT, O=IGI, CN=*.test.io
        Subject Public Key Info:
            Public Key Algorithm: rsaEncryption
                RSA Public-Key: (2048 bit)
                Modulus:
                    00:dd:df:23:66:b3:76:a7:68:24:5f:5b:01:87:f2:
                    ca:84:51:89:e6:23:07:ac:98:f2:cd:1d:6a:78:8f:
                    70:7c:be:b9:98:fe:b3:11:92:bf:28:46:1a:58:bb:
                    8b:25:1c:c7:42:35:81:33:f6:a2:fe:c6:8c:e0:39:
                    18:c7:9b:40:55:7c:4f:2f:48:ad:77:74:44:bd:10:
                    c3:52:df:1d:dd:f6:8f:17:1d:4e:af:f1:c1:8d:fd:
                    56:c3:75:26:86:9f:61:09:c8:ba:42:f3:9e:f6:f1:
                    1a:88:ac:8c:1a:71:6a:ca:41:4c:48:08:4b:58:83:
                    51:a5:ee:9c:3c:95:5a:07:f5:44:a5:48:15:16:73:
                    8c:4a:98:64:bc:49:f5:c0:bd:92:bc:24:c9:1c:ea:
                    8b:59:b0:ab:23:b3:9e:8d:03:93:04:bd:c0:20:8e:
                    1f:44:e4:ce:98:92:09:09:ac:6c:9c:8d:ba:9a:eb:
                    83:61:52:49:11:81:c1:79:84:e8:a3:03:42:81:f8:
                    21:8a:d2:9d:82:24:24:2f:8c:54:ef:e4:9f:5a:d6:
                    e9:b2:1b:cd:b4:6b:8e:ae:f3:da:c0:e8:4b:96:7d:
                    d5:d5:85:5e:f3:6a:52:5b:bc:63:36:af:bc:98:8b:
                    7d:b9:7c:d8:89:13:3d:c0:e3:06:8d:5c:5a:30:42:
                    60:31
                Exponent: 65537 (0x10001)
        X509v3 extensions:
            X509v3 Basic Constraints: critical
                CA:FALSE
            X509v3 Subject Key Identifier: 
                FE:EE:5D:B7:F8:17:9B:C7:7C:A4:1D:04:1F:0E:47:23:BF:C2:D8:B3
            X509v3 Key Usage: critical
                Digital Signature, Non Repudiation, Key Encipherment
            X509v3 Extended Key Usage: 
                TLS Web Server Authentication, TLS Web Client Authentication, Microsoft Server Gated Crypto, Netscape Server Gated Crypto, E-mail Protection
            X509v3 Authority Key Identifier: 
                keyid:91:77:36:7B:2E:B4:69:F3:27:EA:B7:F6:08:8B:4A:23:A2:11:49:C6

            X509v3 Subject Alternative Name: 
                DNS:*.test.io, DNS:localhost
    Signature Algorithm: sha512WithRSAEncryption
         80:1b:45:b6:4e:b1:24:6e:e7:f9:e2:96:17:4d:09:7a:90:f6:
         ff:40:06:6d:14:9b:53:16:72:f2:10:a9:90:d7:e3:ad:37:0b:
         81:18:cf:f8:b9:b5:bb:f7:33:ea:36:7f:0a:5f:17:07:19:4a:
         6f:db:45:ca:cf:d4:ae:d7:32:04:c0:64:fb:ae:5c:56:fd:7c:
         a7:72:6f:38:01:b5:99:d6:18:86:57:26:c6:a8:13:6c:2a:3a:
         6b:0b:f7:b0:c6:bb:b7:a4:74:f1:4e:1e:ec:47:ba:33:89:12:
         54:88:c1:39:47:b4:71:2e:16:f5:d3:c5:7b:5d:ce:fc:5a:78:
         00:f2:06:44:df:b6:f2:a9:e9:d0:96:f8:fb:60:78:9c:7b:00:
         15:b0:37:d8:3d:43:24:72:23:d0:af:da:ce:7b:72:69:15:d5:
         a3:40:d3:b0:16:df:9a:05:61:17:5d:a1:b9:48:ea:36:21:c0:
         63:71:24:42:71:b5:6f:4a:ee:2c:33:41:b3:4d:3b:89:9f:93:
         6a:f5:9d:cc:48:8e:45:2a:8b:f9:d6:2f:56:3e:7c:10:31:79:
         85:68:a3:74:ac:98:0d:97:39:08:ec:5f:ce:09:b0:18:7e:3f:
         4e:3b:20:cc:73:9b:91:06:db:71:47:ed:49:f6:64:78:54:fc:
         2f:2b:e8:b8
-----BEGIN CERTIFICATE-----
MIIDmzCCAoOgAwIBAgICAzIwDQYJKoZIhvcNAQENBQAwLTELMAkGA1UEBhMCSVQx
DDAKBgNVBAoMA0lHSTEQMA4GA1UEAwwHVGVzdCBDQTAeFw0yMDA1MTcwNjQzMjFa
Fw0zMDA1MTUwNjQzMjFaMC8xCzAJBgNVBAYTAklUMQwwCgYDVQQKDANJR0kxEjAQ
BgNVBAMMCSoudGVzdC5pbzCCASIwDQYJKoZIhvcNAQEBBQADggEPADCCAQoCggEB
AN3fI2azdqdoJF9bAYfyyoRRieYjB6yY8s0daniPcHy+uZj+sxGSvyhGGli7iyUc
x0I1gTP2ov7GjOA5GMebQFV8Ty9IrXd0RL0Qw1LfHd32jxcdTq/xwY39VsN1Joaf
YQnIukLznvbxGoisjBpxaspBTEgIS1iDUaXunDyVWgf1RKVIFRZzjEqYZLxJ9cC9
krwkyRzqi1mwqyOzno0DkwS9wCCOH0TkzpiSCQmsbJyNuprrg2FSSRGBwXmE6KMD
QoH4IYrSnYIkJC+MVO/kn1rW6bIbzbRrjq7z2sDoS5Z91dWFXvNqUlu8YzavvJiL
fbl82IkTPcDjBo1cWjBCYDECAwEAAaOBwjCBvzAMBgNVHRMBAf8EAjAAMB0GA1Ud
DgQWBBT+7l23+Bebx3ykHQQfDkcjv8LYszAOBgNVHQ8BAf8EBAMCBeAwPgYDVR0l
BDcwNQYIKwYBBQUHAwEGCCsGAQUFBwMCBgorBgEEAYI3CgMDBglghkgBhvhCBAEG
CCsGAQUFBwMEMB8GA1UdIwQYMBaAFJF3NnsutGnzJ+q39giLSiOiEUnGMB8GA1Ud
EQQYMBaCCSoudGVzdC5pb4IJbG9jYWxob3N0MA0GCSqGSIb3DQEBDQUAA4IBAQCA
G0W2TrEkbuf54pYXTQl6kPb/QAZtFJtTFnLyEKmQ1+OtNwuBGM/4ubW79zPqNn8K
XxcHGUpv20XKz9Su1zIEwGT7rlxW/Xyncm84AbWZ1hiGVybGqBNsKjprC/ewxru3
pHTxTh7sR7oziRJUiME5R7RxLhb108V7Xc78WngA8gZE37byqenQlvj7YHicewAV
sDfYPUMkciPQr9rOe3JpFdWjQNOwFt+aBWEXXaG5SOo2IcBjcSRCcbVvSu4sM0Gz
TTuJn5Nq9Z3MSI5FKov51i9WPnwQMXmFaKN0rJgNlzkI7F/OCbAYfj9OOyDMc5uR
BttxR+1J9mR4VPwvK+i4
-----END CERTIFICATE-----
